target datalayout = "e-m:e-p270:32:32-p271:32:32-p272:64:64-i64:64-i128:128-f80:128-n8:16:32:64-S128"
target triple = "x86_64-pc-linux-gnu"

%struct.JNINativeInterface_ = type { ptr, ptr, ptr, ptr, ptr, ptr, ptr, ptr, ptr, ptr, ptr, ptr, ptr, ptr, ptr, ptr, ptr, ptr, ptr, ptr, ptr, ptr, ptr, ptr, ptr, ptr, ptr, ptr, ptr, ptr, ptr, ptr, ptr, ptr, ptr, ptr, ptr, ptr, ptr, ptr, ptr, ptr, ptr, ptr, ptr, ptr, ptr, ptr, ptr, ptr, ptr, ptr, ptr, ptr, ptr, ptr, ptr, ptr, ptr, ptr, ptr, ptr, ptr, ptr, ptr, ptr, ptr, ptr, ptr, ptr, ptr, ptr, ptr, ptr, ptr, ptr, ptr, ptr, ptr, ptr, ptr, ptr, ptr, ptr, ptr, ptr, ptr, ptr, ptr, ptr, ptr, ptr, ptr, ptr, ptr, ptr, ptr, ptr, ptr, ptr, ptr, ptr, ptr, ptr, ptr, ptr, ptr, ptr, ptr, ptr, ptr, ptr, ptr, ptr, ptr, ptr, ptr, ptr, ptr, ptr, ptr, ptr, ptr, ptr, ptr, ptr, ptr, ptr, ptr, ptr, ptr, ptr, ptr, ptr, ptr, ptr, ptr, ptr, ptr, ptr, ptr, ptr, ptr, ptr, ptr, ptr, ptr, ptr, ptr, ptr, ptr, ptr, ptr, ptr, ptr, ptr, ptr, ptr, ptr, ptr, ptr, ptr, ptr, ptr, ptr, ptr, ptr, ptr, ptr, ptr, ptr, ptr, ptr, ptr, ptr, ptr, ptr, ptr, ptr, ptr, ptr, ptr, ptr, ptr, ptr, ptr, ptr, ptr, ptr, ptr, ptr, ptr, ptr, ptr, ptr, ptr, ptr, ptr, ptr, ptr, ptr, ptr, ptr, ptr, ptr, ptr, ptr, ptr, ptr, ptr, ptr, ptr, ptr, ptr, ptr, ptr, ptr, ptr, ptr, ptr, ptr, ptr, ptr, ptr, ptr, ptr, ptr, ptr, ptr, ptr, ptr, ptr, ptr, ptr, ptr }
%struct._XRenderPictureAttributes = type { i32, i64, i32, i32, i32, i32, i64, i32, i32, i32, i32, i64, i32 }
%struct.XRenderColor = type { i16, i16, i16, i16 }
%struct._XLinearGradient = type { %struct._XPointFixed, %struct._XPointFixed }
%struct._XPointFixed = type { i32, i32 }

@awt_display = external global ptr, align 8

; Function Attrs: nounwind uwtable
define i32 @Java_sun_java2d_xr_XRBackendNative_XRCreateLinearGradientPaintNative(ptr noundef %0, ptr noundef %1, ptr noundef %2, ptr noundef %3, i32 noundef %4, i32 noundef %5, i32 noundef %6, i32 noundef %7, i32 noundef %8, i32 noundef %9) #0 {
  %11 = alloca i32, align 4
  %12 = alloca ptr, align 8
  %13 = alloca ptr, align 8
  %14 = alloca ptr, align 8
  %15 = alloca ptr, align 8
  %16 = alloca i32, align 4
  %17 = alloca i32, align 4
  %18 = alloca i32, align 4
  %19 = alloca i32, align 4
  %20 = alloca i32, align 4
  %21 = alloca i32, align 4
  %22 = alloca i32, align 4
  %23 = alloca ptr, align 8
  %24 = alloca ptr, align 8
  %25 = alloca %struct._XRenderPictureAttributes, align 8
  %26 = alloca i64, align 8
  %27 = alloca ptr, align 8
  %28 = alloca ptr, align 8
  %29 = alloca %struct._XLinearGradient, align 4
  store ptr %0, ptr %12, align 8
  store ptr %1, ptr %13, align 8
  store ptr %2, ptr %14, align 8
  store ptr %3, ptr %15, align 8
  store i32 %4, ptr %16, align 4
  store i32 %5, ptr %17, align 4
  store i32 %6, ptr %18, align 4
  store i32 %7, ptr %19, align 4
  store i32 %8, ptr %20, align 4
  store i32 %9, ptr %21, align 4
  store i64 0, ptr %26, align 8
  %30 = load i32, ptr %20, align 4
  %31 = zext i32 %30 to i64
  %32 = icmp ult i64 21842, %31
  br i1 %32, label %33, label %34

33:                                               ; preds = %10
  store i32 -1, ptr %11, align 4
  br label %212

34:                                               ; preds = %10
  %35 = load ptr, ptr %12, align 8
  %36 = load ptr, ptr %35, align 8
  %37 = getelementptr inbounds %struct.JNINativeInterface_, ptr %36, i32 0, i32 222
  %38 = load ptr, ptr %37, align 8
  %39 = load ptr, ptr %12, align 8
  %40 = load ptr, ptr %15, align 8
  %41 = call ptr %38(ptr noundef %39, ptr noundef %40, ptr noundef null)
  store ptr %41, ptr %23, align 8
  %42 = icmp eq ptr %41, null
  br i1 %42, label %43, label %44

43:                                               ; preds = %34
  store i32 -1, ptr %11, align 4
  br label %212

44:                                               ; preds = %34
  %45 = load ptr, ptr %12, align 8
  %46 = load ptr, ptr %45, align 8
  %47 = getelementptr inbounds %struct.JNINativeInterface_, ptr %46, i32 0, i32 222
  %48 = load ptr, ptr %47, align 8
  %49 = load ptr, ptr %12, align 8
  %50 = load ptr, ptr %14, align 8
  %51 = call ptr %48(ptr noundef %49, ptr noundef %50, ptr noundef null)
  store ptr %51, ptr %24, align 8
  %52 = icmp eq ptr %51, null
  br i1 %52, label %53, label %61

53:                                               ; preds = %44
  %54 = load ptr, ptr %12, align 8
  %55 = load ptr, ptr %54, align 8
  %56 = getelementptr inbounds %struct.JNINativeInterface_, ptr %55, i32 0, i32 223
  %57 = load ptr, ptr %56, align 8
  %58 = load ptr, ptr %12, align 8
  %59 = load ptr, ptr %15, align 8
  %60 = load ptr, ptr %23, align 8
  call void %57(ptr noundef %58, ptr noundef %59, ptr noundef %60, i32 noundef 2)
  store i32 -1, ptr %11, align 4
  br label %212

61:                                               ; preds = %44
  %62 = load i32, ptr %16, align 4
  %63 = getelementptr inbounds %struct._XLinearGradient, ptr %29, i32 0, i32 0
  %64 = getelementptr inbounds %struct._XPointFixed, ptr %63, i32 0, i32 0
  store i32 %62, ptr %64, align 4
  %65 = load i32, ptr %17, align 4
  %66 = getelementptr inbounds %struct._XLinearGradient, ptr %29, i32 0, i32 0
  %67 = getelementptr inbounds %struct._XPointFixed, ptr %66, i32 0, i32 1
  store i32 %65, ptr %67, align 4
  %68 = load i32, ptr %18, align 4
  %69 = getelementptr inbounds %struct._XLinearGradient, ptr %29, i32 0, i32 1
  %70 = getelementptr inbounds %struct._XPointFixed, ptr %69, i32 0, i32 0
  store i32 %68, ptr %70, align 4
  %71 = load i32, ptr %19, align 4
  %72 = getelementptr inbounds %struct._XLinearGradient, ptr %29, i32 0, i32 1
  %73 = getelementptr inbounds %struct._XPointFixed, ptr %72, i32 0, i32 1
  store i32 %71, ptr %73, align 4
  %74 = load i32, ptr %20, align 4
  %75 = sext i32 %74 to i64
  %76 = mul i64 %75, 8
  %77 = call noalias ptr @malloc(i64 noundef %76) #9
  store ptr %77, ptr %27, align 8
  %78 = load i32, ptr %20, align 4
  %79 = sext i32 %78 to i64
  %80 = mul i64 %79, 4
  %81 = call noalias ptr @malloc(i64 noundef %80) #9
  store ptr %81, ptr %28, align 8
  %82 = load ptr, ptr %27, align 8
  %83 = icmp eq ptr %82, null
  br i1 %83, label %87, label %84

84:                                               ; preds = %61
  %85 = load ptr, ptr %28, align 8
  %86 = icmp eq ptr %85, null
  br i1 %86, label %87, label %112

87:                                               ; preds = %84, %61
  %88 = load ptr, ptr %27, align 8
  %89 = icmp ne ptr %88, null
  br i1 %89, label %90, label %92

90:                                               ; preds = %87
  %91 = load ptr, ptr %27, align 8
  call void @free(ptr noundef %91) #7
  br label %92

92:                                               ; preds = %90, %87
  %93 = load ptr, ptr %28, align 8
  %94 = icmp ne ptr %93, null
  br i1 %94, label %95, label %97

95:                                               ; preds = %92
  %96 = load ptr, ptr %28, align 8
  call void @free(ptr noundef %96) #7
  br label %97

97:                                               ; preds = %95, %92
  %98 = load ptr, ptr %12, align 8
  %99 = load ptr, ptr %98, align 8
  %100 = getelementptr inbounds %struct.JNINativeInterface_, ptr %99, i32 0, i32 223
  %101 = load ptr, ptr %100, align 8
  %102 = load ptr, ptr %12, align 8
  %103 = load ptr, ptr %15, align 8
  %104 = load ptr, ptr %23, align 8
  call void %101(ptr noundef %102, ptr noundef %103, ptr noundef %104, i32 noundef 2)
  %105 = load ptr, ptr %12, align 8
  %106 = load ptr, ptr %105, align 8
  %107 = getelementptr inbounds %struct.JNINativeInterface_, ptr %106, i32 0, i32 223
  %108 = load ptr, ptr %107, align 8
  %109 = load ptr, ptr %12, align 8
  %110 = load ptr, ptr %14, align 8
  %111 = load ptr, ptr %24, align 8
  call void %108(ptr noundef %109, ptr noundef %110, ptr noundef %111, i32 noundef 2)
  store i32 -1, ptr %11, align 4
  br label %212

112:                                              ; preds = %84
  store i32 0, ptr %22, align 4
  br label %113

113:                                              ; preds = %177, %112
  %114 = load i32, ptr %22, align 4
  %115 = load i32, ptr %20, align 4
  %116 = icmp slt i32 %114, %115
  br i1 %116, label %117, label %180

117:                                              ; preds = %113
  %118 = load ptr, ptr %24, align 8
  %119 = load i32, ptr %22, align 4
  %120 = sext i32 %119 to i64
  %121 = getelementptr inbounds float, ptr %118, i64 %120
  %122 = load float, ptr %121, align 4
  %123 = fmul float %122, 6.553600e+04
  %124 = fptosi float %123 to i32
  %125 = load ptr, ptr %28, align 8
  %126 = load i32, ptr %22, align 4
  %127 = sext i32 %126 to i64
  %128 = getelementptr inbounds i32, ptr %125, i64 %127
  store i32 %124, ptr %128, align 4
  %129 = load ptr, ptr %23, align 8
  %130 = load i32, ptr %22, align 4
  %131 = mul nsw i32 %130, 4
  %132 = add nsw i32 %131, 0
  %133 = sext i32 %132 to i64
  %134 = getelementptr inbounds i16, ptr %129, i64 %133
  %135 = load i16, ptr %134, align 2
  %136 = load ptr, ptr %27, align 8
  %137 = load i32, ptr %22, align 4
  %138 = sext i32 %137 to i64
  %139 = getelementptr inbounds %struct.XRenderColor, ptr %136, i64 %138
  %140 = getelementptr inbounds %struct.XRenderColor, ptr %139, i32 0, i32 3
  store i16 %135, ptr %140, align 2
  %141 = load ptr, ptr %23, align 8
  %142 = load i32, ptr %22, align 4
  %143 = mul nsw i32 %142, 4
  %144 = add nsw i32 %143, 1
  %145 = sext i32 %144 to i64
  %146 = getelementptr inbounds i16, ptr %141, i64 %145
  %147 = load i16, ptr %146, align 2
  %148 = load ptr, ptr %27, align 8
  %149 = load i32, ptr %22, align 4
  %150 = sext i32 %149 to i64
  %151 = getelementptr inbounds %struct.XRenderColor, ptr %148, i64 %150
  %152 = getelementptr inbounds %struct.XRenderColor, ptr %151, i32 0, i32 0
  store i16 %147, ptr %152, align 2
  %153 = load ptr, ptr %23, align 8
  %154 = load i32, ptr %22, align 4
  %155 = mul nsw i32 %154, 4
  %156 = add nsw i32 %155, 2
  %157 = sext i32 %156 to i64
  %158 = getelementptr inbounds i16, ptr %153, i64 %157
  %159 = load i16, ptr %158, align 2
  %160 = load ptr, ptr %27, align 8
  %161 = load i32, ptr %22, align 4
  %162 = sext i32 %161 to i64
  %163 = getelementptr inbounds %struct.XRenderColor, ptr %160, i64 %162
  %164 = getelementptr inbounds %struct.XRenderColor, ptr %163, i32 0, i32 1
  store i16 %159, ptr %164, align 2
  %165 = load ptr, ptr %23, align 8
  %166 = load i32, ptr %22, align 4
  %167 = mul nsw i32 %166, 4
  %168 = add nsw i32 %167, 3
  %169 = sext i32 %168 to i64
  %170 = getelementptr inbounds i16, ptr %165, i64 %169
  %171 = load i16, ptr %170, align 2
  %172 = load ptr, ptr %27, align 8
  %173 = load i32, ptr %22, align 4
  %174 = sext i32 %173 to i64
  %175 = getelementptr inbounds %struct.XRenderColor, ptr %172, i64 %174
  %176 = getelementptr inbounds %struct.XRenderColor, ptr %175, i32 0, i32 2
  store i16 %171, ptr %176, align 2
  br label %177

177:                                              ; preds = %117
  %178 = load i32, ptr %22, align 4
  %179 = add nsw i32 %178, 1
  store i32 %179, ptr %22, align 4
  br label %113, !llvm.loop !10

180:                                              ; preds = %113
  %181 = load ptr, ptr @awt_display, align 8
  %182 = load ptr, ptr %28, align 8
  %183 = load ptr, ptr %27, align 8
  %184 = load i32, ptr %20, align 4
  %185 = call i64 @XRenderCreateLinearGradient(ptr noundef %181, ptr noundef %29, ptr noundef %182, ptr noundef %183, i32 noundef %184)
  store i64 %185, ptr %26, align 8
  %186 = load ptr, ptr %27, align 8
  call void @free(ptr noundef %186) #7
  %187 = load ptr, ptr %28, align 8
  call void @free(ptr noundef %187) #7
  %188 = load ptr, ptr %12, align 8
  %189 = load ptr, ptr %188, align 8
  %190 = getelementptr inbounds %struct.JNINativeInterface_, ptr %189, i32 0, i32 223
  %191 = load ptr, ptr %190, align 8
  %192 = load ptr, ptr %12, align 8
  %193 = load ptr, ptr %15, align 8
  %194 = load ptr, ptr %23, align 8
  call void %191(ptr noundef %192, ptr noundef %193, ptr noundef %194, i32 noundef 2)
  %195 = load ptr, ptr %12, align 8
  %196 = load ptr, ptr %195, align 8
  %197 = getelementptr inbounds %struct.JNINativeInterface_, ptr %196, i32 0, i32 223
  %198 = load ptr, ptr %197, align 8
  %199 = load ptr, ptr %12, align 8
  %200 = load ptr, ptr %14, align 8
  %201 = load ptr, ptr %24, align 8
  call void %198(ptr noundef %199, ptr noundef %200, ptr noundef %201, i32 noundef 2)
  %202 = load i64, ptr %26, align 8
  %203 = icmp ne i64 %202, 0
  br i1 %203, label %204, label %209

204:                                              ; preds = %180
  %205 = load i32, ptr %21, align 4
  %206 = getelementptr inbounds %struct._XRenderPictureAttributes, ptr %25, i32 0, i32 0
  store i32 %205, ptr %206, align 8
  %207 = load ptr, ptr @awt_display, align 8
  %208 = load i64, ptr %26, align 8
  call void @XRenderChangePicture(ptr noundef %207, i64 noundef %208, i64 noundef 1, ptr noundef %25)
  br label %209

209:                                              ; preds = %204, %180
  %210 = load i64, ptr %26, align 8
  %211 = trunc i64 %210 to i32
  store i32 %211, ptr %11, align 4
  br label %212

212:                                              ; preds = %209, %97, %53, %43, %33
  %213 = load i32, ptr %11, align 4
  ret i32 %213
}