; Function Attrs: nounwind uwtable
define i32 @Java_sun_java2d_xr_XRBackendNative_XRCreateLinearGradientPaintNative(ptr noundef %0, ptr nocapture noundef readnone %1, ptr noundef %2, ptr noundef %3, i32 noundef %4, i32 noundef %5, i32 noundef %6, i32 noundef %7, i32 noundef %8, i32 noundef %9) local_unnamed_addr #0 {
  %11 = alloca %struct._XRenderPictureAttributes, align 8
  %12 = alloca %struct._XLinearGradient, align 4
  %13 = icmp ugt i32 %8, 21842
  br i1 %13, label %85, label %14

14:                                               ; preds = %10
  %15 = load ptr, ptr %0, align 8
  %16 = getelementptr inbounds i8, ptr %15, i64 1776
  %17 = load ptr, ptr %16, align 8
  %18 = tail call ptr %17(ptr noundef nonnull %0, ptr noundef %3, ptr noundef null) #14
  %19 = icmp eq ptr %18, null
  br i1 %19, label %85, label %20

20:                                               ; preds = %14
  %21 = load ptr, ptr %0, align 8
  %22 = getelementptr inbounds i8, ptr %21, i64 1776
  %23 = load ptr, ptr %22, align 8
  %24 = tail call ptr %23(ptr noundef nonnull %0, ptr noundef %2, ptr noundef null) #14
  %25 = icmp eq ptr %24, null
  br i1 %25, label %26, label %30

26:                                               ; preds = %20
  %27 = load ptr, ptr %0, align 8
  %28 = getelementptr inbounds i8, ptr %27, i64 1784
  %29 = load ptr, ptr %28, align 8
  tail call void %29(ptr noundef nonnull %0, ptr noundef %3, ptr noundef nonnull %18, i32 noundef 2) #14
  br label %85

30:                                               ; preds = %20
  store i32 %4, ptr %12, align 4
  %31 = getelementptr inbounds i8, ptr %12, i64 4
  store i32 %5, ptr %31, align 4
  %32 = getelementptr inbounds i8, ptr %12, i64 8
  store i32 %6, ptr %32, align 4
  %33 = getelementptr inbounds i8, ptr %12, i64 12
  store i32 %7, ptr %33, align 4
  %34 = zext nneg i32 %8 to i64
  %35 = shl nuw nsw i64 %34, 3
  %36 = tail call noalias ptr @malloc(i64 noundef %35) #16
  %37 = shl nuw nsw i64 %34, 2
  %38 = tail call noalias ptr @malloc(i64 noundef %37) #16
  %39 = icmp eq ptr %36, null
  %40 = icmp eq ptr %38, null
  %or.cond = or i1 %39, %40
  br i1 %or.cond, label %41, label %.preheader

.preheader:                                       ; preds = %30
  %.not83 = icmp eq i32 %8, 0
  br i1 %.not83, label %._crit_edge, label %.lr.ph

41:                                               ; preds = %30
  br i1 %39, label %43, label %42

42:                                               ; preds = %41
  tail call void @free(ptr noundef nonnull %36) #14
  br label %43

43:                                               ; preds = %42, %41
  br i1 %40, label %45, label %44

44:                                               ; preds = %43
  tail call void @free(ptr noundef nonnull %38) #14
  br label %45

45:                                               ; preds = %44, %43
  %46 = load ptr, ptr %0, align 8
  %47 = getelementptr inbounds i8, ptr %46, i64 1784
  %48 = load ptr, ptr %47, align 8
  tail call void %48(ptr noundef nonnull %0, ptr noundef %3, ptr noundef nonnull %18, i32 noundef 2) #14
  %49 = load ptr, ptr %0, align 8
  %50 = getelementptr inbounds i8, ptr %49, i64 1784
  %51 = load ptr, ptr %50, align 8
  tail call void %51(ptr noundef nonnull %0, ptr noundef %2, ptr noundef nonnull %24, i32 noundef 2) #14
  br label %85

.lr.ph:                                           ; preds = %.preheader, %.lr.ph
  %indvars.iv = phi i64 [ %indvars.iv.next, %.lr.ph ], [ 0, %.preheader ]
  %52 = getelementptr inbounds float, ptr %24, i64 %indvars.iv
  %53 = load float, ptr %52, align 4
  %54 = fmul float %53, 6.553600e+04
  %55 = fptosi float %54 to i32
  %56 = getelementptr inbounds i32, ptr %38, i64 %indvars.iv
  store i32 %55, ptr %56, align 4
  %57 = shl nsw i64 %indvars.iv, 2
  %58 = getelementptr inbounds i16, ptr %18, i64 %57
  %59 = load i16, ptr %58, align 2
  %60 = getelementptr inbounds %struct.XRenderColor, ptr %36, i64 %indvars.iv
  %61 = getelementptr inbounds i8, ptr %60, i64 6
  store i16 %59, ptr %61, align 2
  %62 = or disjoint i64 %57, 1
  %63 = getelementptr inbounds i16, ptr %18, i64 %62
  %64 = load i16, ptr %63, align 2
  store i16 %64, ptr %60, align 2
  %65 = or disjoint i64 %57, 2
  %66 = getelementptr inbounds i16, ptr %18, i64 %65
  %67 = load i16, ptr %66, align 2
  %68 = getelementptr inbounds i8, ptr %60, i64 2
  store i16 %67, ptr %68, align 2
  %69 = or disjoint i64 %57, 3
  %70 = getelementptr inbounds i16, ptr %18, i64 %69
  %71 = load i16, ptr %70, align 2
  %72 = getelementptr inbounds i8, ptr %60, i64 4
  store i16 %71, ptr %72, align 2
  %indvars.iv.next = add nuw nsw i64 %indvars.iv, 1
  %exitcond.not = icmp eq i64 %indvars.iv.next, %34
  br i1 %exitcond.not, label %._crit_edge, label %.lr.ph, !llvm.loop !10

._crit_edge:                                      ; preds = %.lr.ph, %.preheader
  %73 = load ptr, ptr @awt_display, align 8
  %74 = call i64 @XRenderCreateLinearGradient(ptr noundef %73, ptr noundef nonnull %12, ptr noundef nonnull %38, ptr noundef nonnull %36, i32 noundef %8) #14
  call void @free(ptr noundef nonnull %36) #14
  call void @free(ptr noundef nonnull %38) #14
  %75 = load ptr, ptr %0, align 8
  %76 = getelementptr inbounds i8, ptr %75, i64 1784
  %77 = load ptr, ptr %76, align 8
  call void %77(ptr noundef nonnull %0, ptr noundef %3, ptr noundef nonnull %18, i32 noundef 2) #14
  %78 = load ptr, ptr %0, align 8
  %79 = getelementptr inbounds i8, ptr %78, i64 1784
  %80 = load ptr, ptr %79, align 8
  call void %80(ptr noundef nonnull %0, ptr noundef %2, ptr noundef nonnull %24, i32 noundef 2) #14
  %.not = icmp eq i64 %74, 0
  br i1 %.not, label %83, label %81

81:                                               ; preds = %._crit_edge
  store i32 %9, ptr %11, align 8
  %82 = load ptr, ptr @awt_display, align 8
  call void @XRenderChangePicture(ptr noundef %82, i64 noundef %74, i64 noundef 1, ptr noundef nonnull %11) #14
  br label %83

83:                                               ; preds = %81, %._crit_edge
  %84 = trunc i64 %74 to i32
  br label %85

85:                                               ; preds = %14, %10, %83, %45, %26
  %.0 = phi i32 [ -1, %26 ], [ -1, %45 ], [ %84, %83 ], [ -1, %10 ], [ -1, %14 ]
  ret i32 %.0
}